target datalayout = "e-m:e-p270:32:32-p271:32:32-p272:64:64-i64:64-i128:128-f80:128-n8:16:32:64-S128"
target triple = "x86_64-pc-linux-gnu"

%struct.ossl_qrx_args_st = type { ptr, ptr, ptr, i64, i64, [3 x i64], i8 }
%struct.ossl_qrx_st = type { ptr, ptr, ptr, i64, i64, i64, %struct.ossl_list_st_urxe, %struct.ossl_list_st_urxe, %struct.ossl_list_st_rxe, %struct.ossl_list_st_rxe, [3 x i64], %struct.ossl_qrl_enc_level_set_st, i64, i64, i64, ptr, ptr, ptr, ptr, i8, i8, ptr, ptr, ptr }
%struct.ossl_list_st_urxe = type { ptr, ptr, i64 }
%struct.ossl_list_st_rxe = type { ptr, ptr, i64 }
%struct.ossl_qrl_enc_level_set_st = type { [4 x %struct.ossl_qrl_enc_level_st] }
%struct.ossl_qrl_enc_level_st = type { %struct.quic_hdr_protector_st, ptr, [2 x ptr], ptr, ptr, i64, i64, i32, i32, i8, i8, [2 x [16 x i8]], [64 x i8] }
%struct.quic_hdr_protector_st = type { ptr, ptr, ptr, ptr, i32 }

@.str = private unnamed_addr constant [37 x i8] c"../openssl/ssl/quic/quic_record_rx.c\00", align 1

; Function Attrs: nounwind uwtable
define ptr @ossl_qrx_new(ptr noundef %0) #0 {
  %2 = alloca ptr, align 8
  %3 = alloca ptr, align 8
  %4 = alloca ptr, align 8
  %5 = alloca i64, align 8
  %6 = alloca i32, align 4
  store ptr %0, ptr %3, align 8, !tbaa !3
  call void @llvm.lifetime.start.p0(i64 8, ptr %4) #8
  call void @llvm.lifetime.start.p0(i64 8, ptr %5) #8
  %7 = load ptr, ptr %3, align 8, !tbaa !3
  %8 = getelementptr inbounds nuw %struct.ossl_qrx_args_st, ptr %7, i32 0, i32 2
  %9 = load ptr, ptr %8, align 8, !tbaa !8
  %10 = icmp eq ptr %9, null
  br i1 %10, label %16, label %11

11:                                               ; preds = %1
  %12 = load ptr, ptr %3, align 8, !tbaa !3
  %13 = getelementptr inbounds nuw %struct.ossl_qrx_args_st, ptr %12, i32 0, i32 4
  %14 = load i64, ptr %13, align 8, !tbaa !14
  %15 = icmp eq i64 %14, 0
  br i1 %15, label %16, label %17

16:                                               ; preds = %11, %1
  store ptr null, ptr %2, align 8
  store i32 1, ptr %6, align 4
  br label %71

17:                                               ; preds = %11
  %18 = call noalias ptr @CRYPTO_zalloc(i64 noundef 1088, ptr noundef @.str, i32 noundef 184)
  store ptr %18, ptr %4, align 8, !tbaa !15
  %19 = load ptr, ptr %4, align 8, !tbaa !15
  %20 = icmp eq ptr %19, null
  br i1 %20, label %21, label %22

21:                                               ; preds = %17
  store ptr null, ptr %2, align 8
  store i32 1, ptr %6, align 4
  br label %71

22:                                               ; preds = %17
  store i64 0, ptr %5, align 8, !tbaa !17
  br label %23

23:                                               ; preds = %36, %22
  %24 = load i64, ptr %5, align 8, !tbaa !17
  %25 = icmp ult i64 %24, 3
  br i1 %25, label %26, label %39

26:                                               ; preds = %23
  %27 = load ptr, ptr %3, align 8, !tbaa !3
  %28 = getelementptr inbounds nuw %struct.ossl_qrx_args_st, ptr %27, i32 0, i32 5
  %29 = load i64, ptr %5, align 8, !tbaa !17
  %30 = getelementptr inbounds nuw [3 x i64], ptr %28, i64 0, i64 %29
  %31 = load i64, ptr %30, align 8, !tbaa !17
  %32 = load ptr, ptr %4, align 8, !tbaa !15
  %33 = getelementptr inbounds nuw %struct.ossl_qrx_st, ptr %32, i32 0, i32 10
  %34 = load i64, ptr %5, align 8, !tbaa !17
  %35 = getelementptr inbounds nuw [3 x i64], ptr %33, i64 0, i64 %34
  store i64 %31, ptr %35, align 8, !tbaa !17
  br label %36

36:                                               ; preds = %26
  %37 = load i64, ptr %5, align 8, !tbaa !17
  %38 = add i64 %37, 1
  store i64 %38, ptr %5, align 8, !tbaa !17
  br label %23, !llvm.loop !18

39:                                               ; preds = %23
  %40 = load ptr, ptr %3, align 8, !tbaa !3
  %41 = getelementptr inbounds nuw %struct.ossl_qrx_args_st, ptr %40, i32 0, i32 0
  %42 = load ptr, ptr %41, align 8, !tbaa !20
  %43 = load ptr, ptr %4, align 8, !tbaa !15
  %44 = getelementptr inbounds nuw %struct.ossl_qrx_st, ptr %43, i32 0, i32 0
  store ptr %42, ptr %44, align 8, !tbaa !21
  %45 = load ptr, ptr %3, align 8, !tbaa !3
  %46 = getelementptr inbounds nuw %struct.ossl_qrx_args_st, ptr %45, i32 0, i32 1
  %47 = load ptr, ptr %46, align 8, !tbaa !29
  %48 = load ptr, ptr %4, align 8, !tbaa !15
  %49 = getelementptr inbounds nuw %struct.ossl_qrx_st, ptr %48, i32 0, i32 1
  store ptr %47, ptr %49, align 8, !tbaa !30
  %50 = load ptr, ptr %3, align 8, !tbaa !3
  %51 = getelementptr inbounds nuw %struct.ossl_qrx_args_st, ptr %50, i32 0, i32 2
  %52 = load ptr, ptr %51, align 8, !tbaa !8
  %53 = load ptr, ptr %4, align 8, !tbaa !15
  %54 = getelementptr inbounds nuw %struct.ossl_qrx_st, ptr %53, i32 0, i32 2
  store ptr %52, ptr %54, align 8, !tbaa !31
  %55 = load ptr, ptr %3, align 8, !tbaa !3
  %56 = getelementptr inbounds nuw %struct.ossl_qrx_args_st, ptr %55, i32 0, i32 3
  %57 = load i64, ptr %56, align 8, !tbaa !32
  %58 = load ptr, ptr %4, align 8, !tbaa !15
  %59 = getelementptr inbounds nuw %struct.ossl_qrx_st, ptr %58, i32 0, i32 3
  store i64 %57, ptr %59, align 8, !tbaa !33
  %60 = load ptr, ptr %3, align 8, !tbaa !3
  %61 = getelementptr inbounds nuw %struct.ossl_qrx_args_st, ptr %60, i32 0, i32 6
  %62 = load i8, ptr %61, align 8, !tbaa !34
  %63 = load ptr, ptr %4, align 8, !tbaa !15
  %64 = getelementptr inbounds nuw %struct.ossl_qrx_st, ptr %63, i32 0, i32 19
  store i8 %62, ptr %64, align 8, !tbaa !35
  %65 = load ptr, ptr %3, align 8, !tbaa !3
  %66 = getelementptr inbounds nuw %struct.ossl_qrx_args_st, ptr %65, i32 0, i32 4
  %67 = load i64, ptr %66, align 8, !tbaa !14
  %68 = load ptr, ptr %4, align 8, !tbaa !15
  %69 = getelementptr inbounds nuw %struct.ossl_qrx_st, ptr %68, i32 0, i32 4
  store i64 %67, ptr %69, align 8, !tbaa !36
  %70 = load ptr, ptr %4, align 8, !tbaa !15
  store ptr %70, ptr %2, align 8
  store i32 1, ptr %6, align 4
  br label %71

71:                                               ; preds = %39, %21, %16
  call void @llvm.lifetime.end.p0(i64 8, ptr %5) #8
  call void @llvm.lifetime.end.p0(i64 8, ptr %4) #8
  %72 = load ptr, ptr %2, align 8
  ret ptr %72
}