; Function Attrs: nounwind uwtable
define noalias ptr @ossl_qrx_new(ptr noundef readonly captures(none) %0) local_unnamed_addr #0 {
  %2 = getelementptr inbounds nuw i8, ptr %0, i64 16
  %3 = load ptr, ptr %2, align 8, !tbaa !3
  %4 = icmp eq ptr %3, null
  br i1 %4, label %28, label %5

5:                                                ; preds = %1
  %6 = getelementptr inbounds nuw i8, ptr %0, i64 32
  %7 = load i64, ptr %6, align 8, !tbaa !12
  %8 = icmp eq i64 %7, 0
  br i1 %8, label %28, label %9

9:                                                ; preds = %5
  %10 = tail call noalias ptr @CRYPTO_zalloc(i64 noundef 1088, ptr noundef nonnull @.str, i32 noundef 184) #11
  %11 = icmp eq ptr %10, null
  br i1 %11, label %28, label %.preheader

.preheader:                                       ; preds = %9
  %12 = getelementptr inbounds nuw i8, ptr %0, i64 40
  %13 = getelementptr inbounds nuw i8, ptr %10, i64 144
  tail call void @llvm.memcpy.p0.p0.i64(ptr noundef nonnull align 8 dereferenceable(24) %13, ptr noundef nonnull align 8 dereferenceable(24) %12, i64 24, i1 false), !tbaa !13
  %14 = load ptr, ptr %0, align 8, !tbaa !14
  store ptr %14, ptr %10, align 8, !tbaa !15
  %15 = getelementptr inbounds nuw i8, ptr %0, i64 8
  %16 = load ptr, ptr %15, align 8, !tbaa !23
  %17 = getelementptr inbounds nuw i8, ptr %10, i64 8
  store ptr %16, ptr %17, align 8, !tbaa !24
  %18 = load ptr, ptr %2, align 8, !tbaa !3
  %19 = getelementptr inbounds nuw i8, ptr %10, i64 16
  store ptr %18, ptr %19, align 8, !tbaa !25
  %20 = getelementptr inbounds nuw i8, ptr %0, i64 24
  %21 = load i64, ptr %20, align 8, !tbaa !26
  %22 = getelementptr inbounds nuw i8, ptr %10, i64 24
  store i64 %21, ptr %22, align 8, !tbaa !27
  %23 = getelementptr inbounds nuw i8, ptr %0, i64 64
  %24 = load i8, ptr %23, align 8, !tbaa !28
  %25 = getelementptr inbounds nuw i8, ptr %10, i64 1056
  store i8 %24, ptr %25, align 8, !tbaa !29
  %26 = load i64, ptr %6, align 8, !tbaa !12
  %27 = getelementptr inbounds nuw i8, ptr %10, i64 32
  store i64 %26, ptr %27, align 8, !tbaa !30
  br label %28

28:                                               ; preds = %9, %1, %5, %.preheader
  %.022 = phi ptr [ %10, %.preheader ], [ null, %5 ], [ null, %1 ], [ null, %9 ]
  ret ptr %.022
}